target datalayout = "e-m:e-p270:32:32-p271:32:32-p272:64:64-i64:64-i128:128-f80:128-n8:16:32:64-S128"
target triple = "x86_64-pc-linux-gnu"

%"class.Luau::TypePackRehydrationVisitor" = type { ptr, ptr, ptr }
%"class.std::__cxx11::basic_string" = type { %"struct.std::__cxx11::basic_string<char>::_Alloc_hider", i64, %union.anon }
%"struct.std::__cxx11::basic_string<char>::_Alloc_hider" = type { ptr }
%union.anon = type { i64, [8 x i8] }
%"class.std::optional" = type { %"struct.std::_Optional_base" }
%"struct.std::_Optional_base" = type { %"struct.std::_Optional_payload" }
%"struct.std::_Optional_payload" = type { %"struct.std::_Optional_payload.base", [7 x i8] }
%"struct.std::_Optional_payload.base" = type { %"struct.std::_Optional_payload_base.base" }
%"struct.std::_Optional_payload_base.base" = type <{ %"union.std::_Optional_payload_base<std::__cxx11::basic_string<char>>::_Storage", i8 }>
%"union.std::_Optional_payload_base<std::__cxx11::basic_string<char>>::_Storage" = type { %"class.std::__cxx11::basic_string" }
%"struct.Luau::Type" = type { %"class.Luau::Variant.150", i8, [7 x i8], %"class.std::optional", ptr }
%"class.Luau::Variant.150" = type { i32, [4 x i8], [336 x i8] }
%"struct.Luau::Location" = type { %"struct.Luau::Position", %"struct.Luau::Position" }
%"struct.Luau::Position" = type { i32, i32 }
%"struct.Luau::VariadicTypePack" = type <{ ptr, i8, [7 x i8] }>

; Function Attrs: mustprogress nounwind uwtable
define linkonce_odr dso_local void @_ZN4Luau8PositionC2Ejj(ptr noundef nonnull align 4 dereferenceable(8) %0, i32 noundef %1, i32 noundef %2) unnamed_addr #3 comdat align 2 {
  %4 = alloca ptr, align 8
  %5 = alloca i32, align 4
  %6 = alloca i32, align 4
  store ptr %0, ptr %4, align 8, !tbaa !133
  store i32 %1, ptr %5, align 4, !tbaa !4
  store i32 %2, ptr %6, align 4, !tbaa !4
  %7 = load ptr, ptr %4, align 8
  %8 = getelementptr inbounds nuw %"struct.Luau::Position", ptr %7, i32 0, i32 0
  %9 = load i32, ptr %5, align 4, !tbaa !4
  store i32 %9, ptr %8, align 4, !tbaa !135
  %10 = getelementptr inbounds nuw %"struct.Luau::Position", ptr %7, i32 0, i32 1
  %11 = load i32, ptr %6, align 4, !tbaa !4
  store i32 %11, ptr %10, align 4, !tbaa !137
  ret void
}

; Function Attrs: mustprogress uwtable
define linkonce_odr dso_local noundef ptr @_ZN4Luau9Allocator5allocINS_19AstTypePackVariadicEJNS_8LocationEPNS_7AstTypeEEEEPT_DpOT0_(ptr noundef nonnull align 8 dereferenceable(16) %0, ptr noundef nonnull align 4 dereferenceable(16) %1, ptr noundef nonnull align 8 dereferenceable(8) %2) #2 comdat align 2 {
  %4 = alloca ptr, align 8
  %5 = alloca ptr, align 8
  %6 = alloca ptr, align 8
  %7 = alloca ptr, align 8
  store ptr %0, ptr %4, align 8, !tbaa !31
  store ptr %1, ptr %5, align 8, !tbaa !123
  store ptr %2, ptr %6, align 8, !tbaa !266
  %8 = load ptr, ptr %4, align 8
  call void @llvm.lifetime.start.p0(i64 8, ptr %7) #19
  %9 = call noundef ptr @_ZN4Luau9Allocator8allocateEm(ptr noundef nonnull align 8 dereferenceable(16) %8, i64 noundef 40)
  store ptr %9, ptr %7, align 8, !tbaa !725
  %10 = load ptr, ptr %7, align 8, !tbaa !725
  %11 = load ptr, ptr %5, align 8, !tbaa !123
  %12 = load ptr, ptr %6, align 8, !tbaa !266
  %13 = load ptr, ptr %12, align 8, !tbaa !112
  call void @_ZN4Luau19AstTypePackVariadicC1ERKNS_8LocationEPNS_7AstTypeE(ptr noundef nonnull align 8 dereferenceable(40) %10, ptr noundef nonnull align 4 dereferenceable(16) %11, ptr noundef %13)
  %14 = load ptr, ptr %7, align 8, !tbaa !725
  call void @llvm.lifetime.end.p0(i64 8, ptr %7) #19
  ret ptr %14
}

; Function Attrs: mustprogress uwtable
define linkonce_odr dso_local noundef ptr @_ZN4Luau5visitIRNS_22TypeRehydrationVisitorEJNS_9Unifiable5BoundIPKNS_4TypeEEENS3_5ErrorIS7_EENS_8FreeTypeENS_11GenericTypeENS_13PrimitiveTypeENS_13SingletonTypeENS_11BlockedTypeENS_20PendingExpansionTypeENS_12FunctionTypeENS_9TableTypeENS_13MetatableTypeENS_9ClassTypeENS_7AnyTypeENS_9UnionTypeENS_16IntersectionTypeENS_8LazyTypeENS_11UnknownTypeENS_9NeverTypeENS_12NegationTypeENS_12NoRefineTypeENS_24TypeFunctionInstanceTypeEEEEDaOT_RKNS_7VariantIJDpT0_EEE(ptr noundef nonnull align 8 dereferenceable(80) %0, ptr noundef nonnull align 8 dereferenceable(344) %1) #2 comdat {
  %3 = alloca ptr, align 8
  %4 = alloca ptr, align 8
  %5 = alloca ptr, align 8
  store ptr %0, ptr %3, align 8, !tbaa !8
  store ptr %1, ptr %4, align 8, !tbaa !108
  call void @llvm.lifetime.start.p0(i64 8, ptr %5) #19
  %6 = load ptr, ptr %4, align 8, !tbaa !108
  %7 = getelementptr inbounds nuw %"class.Luau::Variant.150", ptr %6, i32 0, i32 0
  %8 = load i32, ptr %7, align 8, !tbaa !110
  %9 = sext i32 %8 to i64
  %10 = getelementptr inbounds [21 x ptr], ptr @_ZZN4Luau5visitIRNS_22TypeRehydrationVisitorEJNS_9Unifiable5BoundIPKNS_4TypeEEENS3_5ErrorIS7_EENS_8FreeTypeENS_11GenericTypeENS_13PrimitiveTypeENS_13SingletonTypeENS_11BlockedTypeENS_20PendingExpansionTypeENS_12FunctionTypeENS_9TableTypeENS_13MetatableTypeENS_9ClassTypeENS_7AnyTypeENS_9UnionTypeENS_16IntersectionTypeENS_8LazyTypeENS_11UnknownTypeENS_9NeverTypeENS_12NegationTypeENS_12NoRefineTypeENS_24TypeFunctionInstanceTypeEEEEDaOT_RKNS_7VariantIJDpT0_EEEE10tableVisit_0, i64 0, i64 %9
  %11 = load ptr, ptr %10, align 8, !tbaa !41
  %12 = load ptr, ptr %3, align 8, !tbaa !8
  %13 = load ptr, ptr %4, align 8, !tbaa !108
  %14 = getelementptr inbounds nuw %"class.Luau::Variant.150", ptr %13, i32 0, i32 2
  call void %11(ptr noundef nonnull align 8 dereferenceable(80) %12, ptr noundef nonnull align 8 dereferenceable(8) %5, ptr noundef %14)
  %15 = load ptr, ptr %5, align 8, !tbaa !112
  call void @llvm.lifetime.end.p0(i64 8, ptr %5) #19
  ret ptr %15
}

; Function Attrs: mustprogress uwtable
define linkonce_odr dso_local void @_ZN4Luau8LocationC2Ev(ptr noundef nonnull align 4 dereferenceable(16) %0) unnamed_addr #2 comdat align 2 {
  %2 = alloca ptr, align 8
  store ptr %0, ptr %2, align 8, !tbaa !123
  %3 = load ptr, ptr %2, align 8
  %4 = getelementptr inbounds nuw %"struct.Luau::Location", ptr %3, i32 0, i32 0
  call void @_ZN4Luau8PositionC2Ejj(ptr noundef nonnull align 4 dereferenceable(8) %4, i32 noundef 0, i32 noundef 0)
  %5 = getelementptr inbounds nuw %"struct.Luau::Location", ptr %3, i32 0, i32 1
  call void @_ZN4Luau8PositionC2Ejj(ptr noundef nonnull align 4 dereferenceable(8) %5, i32 noundef 0, i32 noundef 0)
  ret void
}

; Function Attrs: mustprogress uwtable
define linkonce_odr dso_local noundef ptr @_ZNK4Luau26TypePackRehydrationVisitorclERKNS_16VariadicTypePackE(ptr noundef nonnull align 8 dereferenceable(24) %0, ptr noundef nonnull align 8 dereferenceable(9) %1) #2 comdat align 2 {
  %3 = alloca ptr, align 8
  %4 = alloca ptr, align 8
  %5 = alloca ptr, align 8
  %6 = alloca %"struct.Luau::Location", align 4
  %7 = alloca ptr, align 8
  store ptr %0, ptr %4, align 8, !tbaa !29
  store ptr %1, ptr %5, align 8, !tbaa !720
  %8 = load ptr, ptr %4, align 8
  %9 = load ptr, ptr %5, align 8, !tbaa !720
  %10 = getelementptr inbounds nuw %"struct.Luau::VariadicTypePack", ptr %9, i32 0, i32 1
  %11 = load i8, ptr %10, align 8, !tbaa !722, !range !149, !noundef !150
  %12 = trunc i8 %11 to i1
  br i1 %12, label %13, label %14

13:                                               ; preds = %2
  store ptr null, ptr %3, align 8
  br label %25

14:                                               ; preds = %2
  %15 = getelementptr inbounds nuw %"class.Luau::TypePackRehydrationVisitor", ptr %8, i32 0, i32 0
  %16 = load ptr, ptr %15, align 8, !tbaa !33
  call void @llvm.lifetime.start.p0(i64 16, ptr %6) #19
  call void @_ZN4Luau8LocationC2Ev(ptr noundef nonnull align 4 dereferenceable(16) %6)
  call void @llvm.lifetime.start.p0(i64 8, ptr %7) #19
  %17 = getelementptr inbounds nuw %"class.Luau::TypePackRehydrationVisitor", ptr %8, i32 0, i32 2
  %18 = load ptr, ptr %17, align 8, !tbaa !36
  %19 = load ptr, ptr %5, align 8, !tbaa !720
  %20 = getelementptr inbounds nuw %"struct.Luau::VariadicTypePack", ptr %19, i32 0, i32 0
  %21 = load ptr, ptr %20, align 8, !tbaa !724
  %22 = getelementptr inbounds nuw %"struct.Luau::Type", ptr %21, i32 0, i32 0
  %23 = call noundef ptr @_ZN4Luau5visitIRNS_22TypeRehydrationVisitorEJNS_9Unifiable5BoundIPKNS_4TypeEEENS3_5ErrorIS7_EENS_8FreeTypeENS_11GenericTypeENS_13PrimitiveTypeENS_13SingletonTypeENS_11BlockedTypeENS_20PendingExpansionTypeENS_12FunctionTypeENS_9TableTypeENS_13MetatableTypeENS_9ClassTypeENS_7AnyTypeENS_9UnionTypeENS_16IntersectionTypeENS_8LazyTypeENS_11UnknownTypeENS_9NeverTypeENS_12NegationTypeENS_12NoRefineTypeENS_24TypeFunctionInstanceTypeEEEEDaOT_RKNS_7VariantIJDpT0_EEE(ptr noundef nonnull align 8 dereferenceable(80) %18, ptr noundef nonnull align 8 dereferenceable(344) %22)
  store ptr %23, ptr %7, align 8, !tbaa !112
  %24 = call noundef ptr @_ZN4Luau9Allocator5allocINS_19AstTypePackVariadicEJNS_8LocationEPNS_7AstTypeEEEEPT_DpOT0_(ptr noundef nonnull align 8 dereferenceable(16) %16, ptr noundef nonnull align 4 dereferenceable(16) %6, ptr noundef nonnull align 8 dereferenceable(8) %7)
  store ptr %24, ptr %3, align 8
  call void @llvm.lifetime.end.p0(i64 8, ptr %7) #19
  call void @llvm.lifetime.end.p0(i64 16, ptr %6) #19
  br label %25

25:                                               ; preds = %14, %13
  %26 = load ptr, ptr %3, align 8
  ret ptr %26
}

; Function Attrs: mustprogress uwtable
define internal void @_ZN4LuauL8fnVisitRIRKNS_26TypePackRehydrationVisitorEPNS_11AstTypePackEKNS_16VariadicTypePackEEEvRT_RT0_PNSt11conditionalIXsr3stdE10is_const_vIT1_EEKvvE4typeE(ptr noundef nonnull align 8 dereferenceable(24) %0, ptr noundef nonnull align 8 dereferenceable(8) %1, ptr noundef %2) #2 {
  %4 = alloca ptr, align 8
  %5 = alloca ptr, align 8
  %6 = alloca ptr, align 8
  store ptr %0, ptr %4, align 8, !tbaa !29
  store ptr %1, ptr %5, align 8, !tbaa !115
  store ptr %2, ptr %6, align 8, !tbaa !41
  %7 = load ptr, ptr %4, align 8, !tbaa !29
  %8 = load ptr, ptr %6, align 8, !tbaa !41
  %9 = call noundef ptr @_ZNK4Luau26TypePackRehydrationVisitorclERKNS_16VariadicTypePackE(ptr noundef nonnull align 8 dereferenceable(24) %7, ptr noundef nonnull align 8 dereferenceable(9) %8)
  %10 = load ptr, ptr %5, align 8, !tbaa !115
  store ptr %9, ptr %10, align 8, !tbaa !42
  ret void
}