; Function Attrs: mustprogress uwtable
define internal void @_ZN4LuauL8fnVisitRIRKNS_26TypePackRehydrationVisitorEPNS_11AstTypePackEKNS_16VariadicTypePackEEEvRT_RT0_PNSt11conditionalIXsr3stdE10is_const_vIT1_EEKvvE4typeE(ptr noundef nonnull readonly align 8 captures(none) dereferenceable(24) %0, ptr noundef nonnull writeonly align 8 captures(none) dereferenceable(8) initializes((0, 8)) %1, ptr noundef readonly captures(none) %2) #2 {
  %4 = alloca ptr, align 8
  %5 = alloca %"struct.Luau::Location", align 4
  %6 = getelementptr inbounds nuw i8, ptr %2, i64 8
  %7 = load i8, ptr %6, align 8, !tbaa !111, !range !114, !noundef !115
  %8 = trunc nuw i8 %7 to i1
  br i1 %8, label %_ZNK4Luau26TypePackRehydrationVisitorclERKNS_16VariadicTypePackE.exit, label %9

9:                                                ; preds = %3
  %10 = load ptr, ptr %0, align 8, !tbaa !25
  call void @llvm.lifetime.start.p0(i64 16, ptr nonnull %5) #21
  call void @llvm.memset.p0.i64(ptr noundef nonnull align 4 dereferenceable(16) %5, i8 0, i64 16, i1 false)
  %11 = getelementptr inbounds nuw i8, ptr %0, i64 16
  %12 = load ptr, ptr %11, align 8, !tbaa !29
  %13 = load ptr, ptr %2, align 8, !tbaa !116
  call void @llvm.lifetime.start.p0(i64 8, ptr nonnull %4) #21
  %14 = load i32, ptr %13, align 8, !tbaa !104
  %15 = sext i32 %14 to i64
  %16 = getelementptr inbounds [21 x ptr], ptr @_ZZN4Luau5visitIRNS_22TypeRehydrationVisitorEJNS_9Unifiable5BoundIPKNS_4TypeEEENS3_5ErrorIS7_EENS_8FreeTypeENS_11GenericTypeENS_13PrimitiveTypeENS_13SingletonTypeENS_11BlockedTypeENS_20PendingExpansionTypeENS_12FunctionTypeENS_9TableTypeENS_13MetatableTypeENS_9ClassTypeENS_7AnyTypeENS_9UnionTypeENS_16IntersectionTypeENS_8LazyTypeENS_11UnknownTypeENS_9NeverTypeENS_12NegationTypeENS_12NoRefineTypeENS_24TypeFunctionInstanceTypeEEEEDaOT_RKNS_7VariantIJDpT0_EEEE10tableVisit_0, i64 0, i64 %15
  %17 = load ptr, ptr %16, align 8, !tbaa !32
  %18 = getelementptr inbounds nuw i8, ptr %13, i64 8
  call void %17(ptr noundef nonnull align 8 dereferenceable(80) %12, ptr noundef nonnull align 8 dereferenceable(8) %4, ptr noundef nonnull %18)
  %19 = load ptr, ptr %4, align 8, !tbaa !106
  call void @llvm.lifetime.end.p0(i64 8, ptr nonnull %4) #21
  %20 = call noundef ptr @_ZN4Luau9Allocator8allocateEm(ptr noundef nonnull align 8 dereferenceable(16) %10, i64 noundef 40)
  call void @_ZN4Luau19AstTypePackVariadicC1ERKNS_8LocationEPNS_7AstTypeE(ptr noundef nonnull align 8 dereferenceable(40) %20, ptr noundef nonnull align 4 dereferenceable(16) %5, ptr noundef %19)
  call void @llvm.lifetime.end.p0(i64 16, ptr nonnull %5) #21
  br label %_ZNK4Luau26TypePackRehydrationVisitorclERKNS_16VariadicTypePackE.exit

_ZNK4Luau26TypePackRehydrationVisitorclERKNS_16VariadicTypePackE.exit: ; preds = %3, %9
  %.0.i = phi ptr [ %20, %9 ], [ null, %3 ]
  store ptr %.0.i, ptr %1, align 8, !tbaa !33
  ret void
}